target datalayout = "e-m:e-p270:32:32-p271:32:32-p272:64:64-i64:64-i128:128-f80:128-n8:16:32:64-S128"
target triple = "x86_64-pc-linux-gnu"

%struct.List = type { i32, i32, i32, ptr, [0 x %union.ListCell] }
%union.ListCell = type { ptr }
%struct.RangeTblEntry = type { i32, ptr, ptr, i32, i32, i8, i8, i32, i32, ptr, ptr, i8, i32, i32, ptr, ptr, ptr, ptr, ptr, i8, ptr, ptr, ptr, i32, i8, ptr, ptr, ptr, ptr, double, ptr, i8, i8, ptr }
%struct.RTEPermissionInfo = type { i32, i32, i8, i64, i32, ptr, ptr, ptr }

@.str.1 = private unnamed_addr constant [17 x i8] c"parse_relation.c\00", align 1
@.str.65 = private unnamed_addr constant [46 x i8] c"invalid perminfoindex %u in RTE with relid %u\00", align 1
@__func__.getRTEPermissionInfo = private unnamed_addr constant [21 x i8] c"getRTEPermissionInfo\00", align 1
@.str.66 = private unnamed_addr constant [88 x i8] c"permission info at index %u (with relid=%u) does not match provided RTE (with relid=%u)\00", align 1

; Function Attrs: inlinehint nounwind uwtable
define internal ptr @list_nth_cell(ptr noundef %0, i32 noundef %1) #6 {
  %3 = alloca ptr, align 8
  %4 = alloca i32, align 4
  store ptr %0, ptr %3, align 8
  store i32 %1, ptr %4, align 4
  %5 = load ptr, ptr %3, align 8
  %6 = getelementptr inbounds nuw %struct.List, ptr %5, i32 0, i32 3
  %7 = load ptr, ptr %6, align 8
  %8 = load i32, ptr %4, align 4
  %9 = sext i32 %8 to i64
  %10 = getelementptr inbounds %union.ListCell, ptr %7, i64 %9
  ret ptr %10
}

; Function Attrs: inlinehint nounwind uwtable
define internal ptr @list_nth(ptr noundef %0, i32 noundef %1) #6 {
  %3 = alloca ptr, align 8
  %4 = alloca i32, align 4
  store ptr %0, ptr %3, align 8
  store i32 %1, ptr %4, align 4
  %5 = load ptr, ptr %3, align 8
  %6 = load i32, ptr %4, align 4
  %7 = call ptr @list_nth_cell(ptr noundef %5, i32 noundef %6)
  %8 = load ptr, ptr %7, align 8
  ret ptr %8
}

; Function Attrs: inlinehint nounwind uwtable
define internal i32 @list_length(ptr noundef %0) #6 {
  %2 = alloca ptr, align 8
  store ptr %0, ptr %2, align 8
  %3 = load ptr, ptr %2, align 8
  %4 = icmp ne ptr %3, null
  br i1 %4, label %5, label %9

5:                                                ; preds = %1
  %6 = load ptr, ptr %2, align 8
  %7 = getelementptr inbounds nuw %struct.List, ptr %6, i32 0, i32 1
  %8 = load i32, ptr %7, align 4
  br label %10

9:                                                ; preds = %1
  br label %10

10:                                               ; preds = %9, %5
  %11 = phi i32 [ %8, %5 ], [ 0, %9 ]
  ret i32 %11
}

; Function Attrs: nounwind uwtable
define dso_local ptr @getRTEPermissionInfo(ptr noundef %0, ptr noundef %1) #0 {
  %3 = alloca ptr, align 8
  %4 = alloca ptr, align 8
  %5 = alloca ptr, align 8
  store ptr %0, ptr %3, align 8
  store ptr %1, ptr %4, align 8
  call void @llvm.lifetime.start.p0(i64 8, ptr %5) #8
  %6 = load ptr, ptr %4, align 8
  %7 = getelementptr inbounds nuw %struct.RangeTblEntry, ptr %6, i32 0, i32 8
  %8 = load i32, ptr %7, align 8
  %9 = icmp eq i32 %8, 0
  br i1 %9, label %17, label %10

10:                                               ; preds = %2
  %11 = load ptr, ptr %4, align 8
  %12 = getelementptr inbounds nuw %struct.RangeTblEntry, ptr %11, i32 0, i32 8
  %13 = load i32, ptr %12, align 8
  %14 = load ptr, ptr %3, align 8
  %15 = call i32 @list_length(ptr noundef %14)
  %16 = icmp ugt i32 %13, %15
  br i1 %16, label %17, label %34

17:                                               ; preds = %10, %2
  br label %18

18:                                               ; preds = %17
  br i1 true, label %19, label %21

19:                                               ; preds = %18
  %20 = call zeroext i1 @errstart_cold(i32 noundef 21, ptr noundef null) #9
  br i1 %20, label %23, label %31

21:                                               ; preds = %18
  %22 = call zeroext i1 @errstart(i32 noundef 21, ptr noundef null)
  br i1 %22, label %23, label %31

23:                                               ; preds = %21, %19
  %24 = load ptr, ptr %4, align 8
  %25 = getelementptr inbounds nuw %struct.RangeTblEntry, ptr %24, i32 0, i32 8
  %26 = load i32, ptr %25, align 8
  %27 = load ptr, ptr %4, align 8
  %28 = getelementptr inbounds nuw %struct.RangeTblEntry, ptr %27, i32 0, i32 4
  %29 = load i32, ptr %28, align 4
  %30 = call i32 (ptr, ...) @errmsg_internal(ptr noundef @.str.65, i32 noundef %26, i32 noundef %29)
  call void @errfinish(ptr noundef @.str.1, i32 noundef 4016, ptr noundef @__func__.getRTEPermissionInfo)
  br label %31

31:                                               ; preds = %23, %21, %19
  unreachable

32:                                               ; No predecessors!
  br label %33

33:                                               ; preds = %32
  br label %34

34:                                               ; preds = %33, %10
  %35 = load ptr, ptr %3, align 8
  %36 = load ptr, ptr %4, align 8
  %37 = getelementptr inbounds nuw %struct.RangeTblEntry, ptr %36, i32 0, i32 8
  %38 = load i32, ptr %37, align 8
  %39 = sub i32 %38, 1
  %40 = call ptr @list_nth(ptr noundef %35, i32 noundef %39)
  store ptr %40, ptr %5, align 8
  %41 = load ptr, ptr %5, align 8
  %42 = getelementptr inbounds nuw %struct.RTEPermissionInfo, ptr %41, i32 0, i32 1
  %43 = load i32, ptr %42, align 4
  %44 = load ptr, ptr %4, align 8
  %45 = getelementptr inbounds nuw %struct.RangeTblEntry, ptr %44, i32 0, i32 4
  %46 = load i32, ptr %45, align 4
  %47 = icmp ne i32 %43, %46
  br i1 %47, label %48, label %68

48:                                               ; preds = %34
  br label %49

49:                                               ; preds = %48
  br i1 true, label %50, label %52

50:                                               ; preds = %49
  %51 = call zeroext i1 @errstart_cold(i32 noundef 21, ptr noundef null) #9
  br i1 %51, label %54, label %65

52:                                               ; preds = %49
  %53 = call zeroext i1 @errstart(i32 noundef 21, ptr noundef null)
  br i1 %53, label %54, label %65

54:                                               ; preds = %52, %50
  %55 = load ptr, ptr %4, align 8
  %56 = getelementptr inbounds nuw %struct.RangeTblEntry, ptr %55, i32 0, i32 8
  %57 = load i32, ptr %56, align 8
  %58 = load ptr, ptr %5, align 8
  %59 = getelementptr inbounds nuw %struct.RTEPermissionInfo, ptr %58, i32 0, i32 1
  %60 = load i32, ptr %59, align 4
  %61 = load ptr, ptr %4, align 8
  %62 = getelementptr inbounds nuw %struct.RangeTblEntry, ptr %61, i32 0, i32 4
  %63 = load i32, ptr %62, align 4
  %64 = call i32 (ptr, ...) @errmsg_internal(ptr noundef @.str.66, i32 noundef %57, i32 noundef %60, i32 noundef %63)
  call void @errfinish(ptr noundef @.str.1, i32 noundef 4021, ptr noundef @__func__.getRTEPermissionInfo)
  br label %65

65:                                               ; preds = %54, %52, %50
  unreachable

66:                                               ; No predecessors!
  br label %67

67:                                               ; preds = %66
  br label %68

68:                                               ; preds = %67, %34
  %69 = load ptr, ptr %5, align 8
  call void @llvm.lifetime.end.p0(i64 8, ptr %5) #8
  ret ptr %69
}