; Function Attrs: nounwind uwtable
define dso_local ptr @getRTEPermissionInfo(ptr noundef readonly captures(address_is_null) %0, ptr noundef readonly captures(none) %1) local_unnamed_addr #0 {
  %3 = getelementptr inbounds nuw i8, ptr %1, i64 40
  %4 = load i32, ptr %3, align 8
  %5 = icmp eq i32 %4, 0
  %.not.i = icmp eq ptr %0, null
  %or.cond = or i1 %.not.i, %5
  br i1 %or.cond, label %list_length.exit.thread, label %list_length.exit

list_length.exit:                                 ; preds = %2
  %6 = getelementptr inbounds nuw i8, ptr %0, i64 4
  %7 = load i32, ptr %6, align 4
  %8 = icmp ugt i32 %4, %7
  br i1 %8, label %list_length.exit.thread, label %14

list_length.exit.thread:                          ; preds = %list_length.exit, %2
  %9 = tail call zeroext i1 @errstart_cold(i32 noundef 21, ptr noundef null) #13
  tail call void @llvm.assume(i1 %9)
  %10 = load i32, ptr %3, align 8
  %11 = getelementptr inbounds nuw i8, ptr %1, i64 28
  %12 = load i32, ptr %11, align 4
  %13 = tail call i32 (ptr, ...) @errmsg_internal(ptr noundef nonnull @.str.65, i32 noundef %10, i32 noundef %12) #11
  tail call void @errfinish(ptr noundef nonnull @.str.1, i32 noundef 4016, ptr noundef nonnull @__func__.getRTEPermissionInfo) #11
  unreachable

14:                                               ; preds = %list_length.exit
  %15 = add i32 %4, -1
  %16 = getelementptr i8, ptr %0, i64 16
  %.val = load ptr, ptr %16, align 8
  %17 = sext i32 %15 to i64
  %18 = getelementptr inbounds %union.ListCell, ptr %.val, i64 %17
  %19 = load ptr, ptr %18, align 8
  %20 = getelementptr inbounds nuw i8, ptr %19, i64 4
  %21 = load i32, ptr %20, align 4
  %22 = getelementptr inbounds nuw i8, ptr %1, i64 28
  %23 = load i32, ptr %22, align 4
  %.not = icmp eq i32 %21, %23
  br i1 %.not, label %30, label %24

24:                                               ; preds = %14
  %25 = tail call zeroext i1 @errstart_cold(i32 noundef 21, ptr noundef null) #13
  tail call void @llvm.assume(i1 %25)
  %26 = load i32, ptr %3, align 8
  %27 = load i32, ptr %20, align 4
  %28 = load i32, ptr %22, align 4
  %29 = tail call i32 (ptr, ...) @errmsg_internal(ptr noundef nonnull @.str.66, i32 noundef %26, i32 noundef %27, i32 noundef %28) #11
  tail call void @errfinish(ptr noundef nonnull @.str.1, i32 noundef 4021, ptr noundef nonnull @__func__.getRTEPermissionInfo) #11
  unreachable

30:                                               ; preds = %14
  ret ptr %19
}